; ModuleID = '15/76.c'
source_filename = "15/76.c"
target datalayout = "e-m:e-p270:32:32-p271:32:32-p272:64:64-i64:64-f80:128-n8:16:32:64-S128"
target triple = "x86_64-pc-linux-gnu"

@.str = private unnamed_addr constant [3 x i8] c"%d\00", align 1
@.str.1 = private unnamed_addr constant [4 x i8] c"%d \00", align 1
@.str.2 = private unnamed_addr constant [2 x i8] c"\0A\00", align 1
@.str.3 = private unnamed_addr constant [4 x i8] c"%d\0A\00", align 1

; Function Attrs: noinline nounwind uwtable
define dso_local i32 @main() #0 {
  %1 = alloca i32, align 4
  %2 = alloca [1000 x [1000 x i32]], align 16
  %3 = alloca i32, align 4
  %4 = alloca i32, align 4
  %5 = alloca i32, align 4
  %6 = alloca i32, align 4
  %7 = alloca i32, align 4
  %8 = alloca i32, align 4
  store i32 0, i32* %1, align 4
  %9 = bitcast [1000 x [1000 x i32]]* %2 to i8*
  call void @llvm.memset.p0i8.i64(i8* align 16 %9, i8 0, i64 4000000, i1 false)
  store i32 0, i32* %6, align 4
  store i32 0, i32* %7, align 4
  %10 = call i32 (i8*, ...) @__isoc99_scanf(i8* getelementptr inbounds ([3 x i8], [3 x i8]* @.str, i64 0, i64 0), i32* %5)
  store i32 1, i32* %3, align 4
  br label %11

11:                                               ; preds = %35, %0
  %12 = load i32, i32* %3, align 4
  %13 = load i32, i32* %5, align 4
  %14 = icmp sle i32 %12, %13
  br i1 %14, label %15, label %38

15:                                               ; preds = %11
  store i32 1, i32* %4, align 4
  br label %16

16:                                               ; preds = %30, %15
  %17 = load i32, i32* %4, align 4
  %18 = load i32, i32* %5, align 4
  %19 = icmp sle i32 %17, %18
  br i1 %19, label %20, label %33

20:                                               ; preds = %16
  %21 = load i32, i32* %3, align 4
  %22 = sub nsw i32 %21, 1
  %23 = sext i32 %22 to i64
  %24 = getelementptr inbounds [1000 x [1000 x i32]], [1000 x [1000 x i32]]* %2, i64 0, i64 %23
  %25 = load i32, i32* %4, align 4
  %26 = sub nsw i32 %25, 1
  %27 = sext i32 %26 to i64
  %28 = getelementptr inbounds [1000 x i32], [1000 x i32]* %24, i64 0, i64 %27
  %29 = call i32 (i8*, ...) @__isoc99_scanf(i8* getelementptr inbounds ([4 x i8], [4 x i8]* @.str.1, i64 0, i64 0), i32* %28)
  br label %30

30:                                               ; preds = %20
  %31 = load i32, i32* %4, align 4
  %32 = add nsw i32 %31, 1
  store i32 %32, i32* %4, align 4
  br label %16

33:                                               ; preds = %16
  %34 = call i32 (i8*, ...) @printf(i8* getelementptr inbounds ([2 x i8], [2 x i8]* @.str.2, i64 0, i64 0))
  br label %35

35:                                               ; preds = %33
  %36 = load i32, i32* %3, align 4
  %37 = add nsw i32 %36, 1
  store i32 %37, i32* %3, align 4
  br label %11

38:                                               ; preds = %11
  store i32 1, i32* %3, align 4
  br label %39

39:                                               ; preds = %66, %38
  %40 = load i32, i32* %6, align 4
  %41 = icmp eq i32 %40, 0
  br i1 %41, label %42, label %69

42:                                               ; preds = %39
  store i32 1, i32* %4, align 4
  br label %43

43:                                               ; preds = %62, %42
  %44 = load i32, i32* %4, align 4
  %45 = load i32, i32* %5, align 4
  %46 = icmp sle i32 %44, %45
  br i1 %46, label %47, label %65

47:                                               ; preds = %43
  %48 = load i32, i32* %3, align 4
  %49 = sub nsw i32 %48, 1
  %50 = sext i32 %49 to i64
  %51 = getelementptr inbounds [1000 x [1000 x i32]], [1000 x [1000 x i32]]* %2, i64 0, i64 %50
  %52 = load i32, i32* %4, align 4
  %53 = sub nsw i32 %52, 1
  %54 = sext i32 %53 to i64
  %55 = getelementptr inbounds [1000 x i32], [1000 x i32]* %51, i64 0, i64 %54
  %56 = load i32, i32* %55, align 4
  %57 = icmp eq i32 %56, 0
  br i1 %57, label %58, label %61

58:                                               ; preds = %47
  %59 = load i32, i32* %6, align 4
  %60 = add nsw i32 %59, 1
  store i32 %60, i32* %6, align 4
  br label %61

61:                                               ; preds = %58, %47
  br label %62

62:                                               ; preds = %61
  %63 = load i32, i32* %4, align 4
  %64 = add nsw i32 %63, 1
  store i32 %64, i32* %4, align 4
  br label %43

65:                                               ; preds = %43
  br label %66

66:                                               ; preds = %65
  %67 = load i32, i32* %3, align 4
  %68 = add nsw i32 %67, 1
  store i32 %68, i32* %3, align 4
  br label %39

69:                                               ; preds = %39
  store i32 1, i32* %3, align 4
  br label %70

70:                                               ; preds = %97, %69
  %71 = load i32, i32* %7, align 4
  %72 = icmp eq i32 %71, 0
  br i1 %72, label %73, label %100

73:                                               ; preds = %70
  store i32 1, i32* %4, align 4
  br label %74

74:                                               ; preds = %93, %73
  %75 = load i32, i32* %4, align 4
  %76 = load i32, i32* %5, align 4
  %77 = icmp sle i32 %75, %76
  br i1 %77, label %78, label %96

78:                                               ; preds = %74
  %79 = load i32, i32* %4, align 4
  %80 = sub nsw i32 %79, 1
  %81 = sext i32 %80 to i64
  %82 = getelementptr inbounds [1000 x [1000 x i32]], [1000 x [1000 x i32]]* %2, i64 0, i64 %81
  %83 = load i32, i32* %3, align 4
  %84 = sub nsw i32 %83, 1
  %85 = sext i32 %84 to i64
  %86 = getelementptr inbounds [1000 x i32], [1000 x i32]* %82, i64 0, i64 %85
  %87 = load i32, i32* %86, align 4
  %88 = icmp eq i32 %87, 0
  br i1 %88, label %89, label %92

89:                                               ; preds = %78
  %90 = load i32, i32* %7, align 4
  %91 = add nsw i32 %90, 1
  store i32 %91, i32* %7, align 4
  br label %92

92:                                               ; preds = %89, %78
  br label %93

93:                                               ; preds = %92
  %94 = load i32, i32* %4, align 4
  %95 = add nsw i32 %94, 1
  store i32 %95, i32* %4, align 4
  br label %74

96:                                               ; preds = %74
  br label %97

97:                                               ; preds = %96
  %98 = load i32, i32* %3, align 4
  %99 = add nsw i32 %98, 1
  store i32 %99, i32* %3, align 4
  br label %70

100:                                              ; preds = %70
  %101 = load i32, i32* %7, align 4
  %102 = sub nsw i32 %101, 2
  %103 = load i32, i32* %6, align 4
  %104 = sub nsw i32 %103, 2
  %105 = mul nsw i32 %102, %104
  store i32 %105, i32* %8, align 4
  %106 = load i32, i32* %8, align 4
  %107 = call i32 (i8*, ...) @printf(i8* getelementptr inbounds ([4 x i8], [4 x i8]* @.str.3, i64 0, i64 0), i32 %106)
  ret i32 0
}

; Function Attrs: argmemonly nounwind willreturn
declare void @llvm.memset.p0i8.i64(i8* nocapture writeonly, i8, i64, i1 immarg) #1

declare dso_local i32 @__isoc99_scanf(i8*, ...) #2

declare dso_local i32 @printf(i8*, ...) #2


!llvm.module.flags = !{!0}
!llvm.ident = !{!1}

!0 = !{i32 1, !"wchar_size", i32 4}
!1 = !{!"clang version 10.0.0-4ubuntu1 "}
